CCS PCH C Compiler, Version 4.104, 5967               18-dic.-20 17:11

               Filename: C:\Users\DELL\Desktop\proyecto de act 4 ieu\programa_ricky.lst

               ROM used: 152 bytes (0%)
                         Largest free fragment is 32616
               RAM used: 7 (0%) at main() level
                         7 (0%) worst case
               Stack:    1 locations

*
0000:  GOTO   002E
.................... #include<18F4550.h> 
.................... //////// Standard Header file for the PIC18F4550 device //////////////// 
.................... #device PIC18F4550 
.................... #list 
....................  
.................... #fuses NOMCLR INTRC_IO NOMCLR 
.................... #use delay(clock=4000000) 
0004:  CLRF   FEA
0006:  MOVLW  07
0008:  MOVWF  FE9
000A:  MOVF   FEF,W
000C:  BZ    002A
000E:  MOVLW  01
0010:  MOVWF  01
0012:  CLRF   00
0014:  DECFSZ 00,F
0016:  BRA    0014
0018:  DECFSZ 01,F
001A:  BRA    0012
001C:  MOVLW  4A
001E:  MOVWF  00
0020:  DECFSZ 00,F
0022:  BRA    0020
0024:  BRA    0026
0026:  DECFSZ FEF,F
0028:  BRA    000E
002A:  GOTO   0094 (RETURN)
.................... void main(){ 
002E:  CLRF   FF8
0030:  BCF    FD0.7
0032:  CLRF   FEA
0034:  CLRF   FE9
0036:  MOVLW  60
0038:  MOVWF  FD3
003A:  MOVF   FD3,W
003C:  MOVF   FC1,W
003E:  ANDLW  C0
0040:  IORLW  0F
0042:  MOVWF  FC1
0044:  MOVLW  07
0046:  MOVWF  FB4
....................     int8 decenas,unidades; 
....................     set_tris_C(0x0F); 
0048:  MOVLW  0F
004A:  MOVWF  F94
....................     set_tris_D(0x00); 
004C:  MOVLW  00
004E:  MOVWF  F95
....................     set_tris_B(0x00); 
0050:  MOVWF  F93
....................     setup_oscillator(OSC_4MHZ); // oscilador interno 
0052:  MOVLW  60
0054:  MOVWF  FD3
0056:  MOVF   FD3,W
....................     decenas = 0; 
0058:  CLRF   05
....................     unidades =0; 
005A:  CLRF   06
....................     output_d(0); 
005C:  CLRF   F95
005E:  CLRF   F8C
....................     output_b(0); 
0060:  CLRF   F93
0062:  CLRF   F8A
....................     while(TRUE){ 
....................         if(input(PIN_C0)==1){ 
0064:  BSF    F94.0
0066:  BTFSS  F82.0
0068:  BRA    008E
....................             output_b(unidades); 
006A:  CLRF   F93
006C:  MOVFF  06,F8A
....................             output_d(decenas); 
0070:  CLRF   F95
0072:  MOVFF  05,F8C
....................             unidades=unidades+1; 
0076:  MOVLW  01
0078:  ADDWF  06,F
....................             if(unidades==10){ 
007A:  MOVF   06,W
007C:  SUBLW  0A
007E:  BNZ   008E
....................             unidades=0; 
0080:  CLRF   06
....................             decenas=decenas+1; 
0082:  MOVLW  01
0084:  ADDWF  05,F
....................             if(decenas==10){ 
0086:  MOVF   05,W
0088:  SUBLW  0A
008A:  BNZ   008E
....................             decenas=0; 
008C:  CLRF   05
....................             }//decenas 
....................             }//unidades 
....................         }//PIN 
....................         delay_ms(200); 
008E:  MOVLW  C8
0090:  MOVWF  07
0092:  BRA    0004
....................     }//while 
0094:  BRA    0064
.................... }//main 
0096:  SLEEP 

Configuration Fuses:
   Word  1: C83F   INTRC_IO IESO FCMEN PLL12 CPUDIV4 USBDIV
   Word  2: 1E3E   BROWNOUT NOWDT BORV20 PUT WDT32768 VREGEN
   Word  3: 0700   PBADEN CCP2C1 NOMCLR LPT1OSC
   Word  4: 0081   STVREN NODEBUG NOLVP NOXINST NOICPRT
   Word  5: C00F   NOPROTECT NOCPD NOCPB
   Word  6: E00F   NOWRT NOWRTD NOWRTC NOWRTB
   Word  7: 400F   NOEBTR NOEBTRB
